target datalayout = "e-m:e-p270:32:32-p271:32:32-p272:64:64-i64:64-i128:128-f80:128-n8:16:32:64-S128"
target triple = "x86_64-pc-linux-gnu"

%"class.llvm::DWARFDie" = type { ptr, ptr }

; Function Attrs: mustprogress nounwind uwtable
define linkonce_odr hidden void @_ZN4llvm8DWARFDieC2Ev(ptr noundef nonnull align 8 dereferenceable(16) %0) unnamed_addr #0 comdat align 2 {
  %2 = alloca ptr, align 8
  store ptr %0, ptr %2, align 8
  %3 = load ptr, ptr %2, align 8
  %4 = getelementptr inbounds nuw %"class.llvm::DWARFDie", ptr %3, i32 0, i32 0
  store ptr null, ptr %4, align 8
  %5 = getelementptr inbounds nuw %"class.llvm::DWARFDie", ptr %3, i32 0, i32 1
  store ptr null, ptr %5, align 8
  ret void
}

; Function Attrs: mustprogress nounwind uwtable
define linkonce_odr hidden noundef zeroext i1 @_ZNK4llvm8DWARFDie7isValidEv(ptr noundef nonnull align 8 dereferenceable(16) %0) #0 comdat align 2 {
  %2 = alloca ptr, align 8
  store ptr %0, ptr %2, align 8
  %3 = load ptr, ptr %2, align 8
  %4 = getelementptr inbounds nuw %"class.llvm::DWARFDie", ptr %3, i32 0, i32 0
  %5 = load ptr, ptr %4, align 8
  %6 = icmp ne ptr %5, null
  br i1 %6, label %7, label %11

7:                                                ; preds = %1
  %8 = getelementptr inbounds nuw %"class.llvm::DWARFDie", ptr %3, i32 0, i32 1
  %9 = load ptr, ptr %8, align 8
  %10 = icmp ne ptr %9, null
  br label %11

11:                                               ; preds = %7, %1
  %12 = phi i1 [ false, %1 ], [ %10, %7 ]
  ret i1 %12
}

; Function Attrs: mustprogress nounwind uwtable
define dso_local { ptr, ptr } @_ZNK4llvm8DWARFDie18getPreviousSiblingEv(ptr noundef nonnull align 8 dereferenceable(16) %0) #0 align 2 {
  %2 = alloca %"class.llvm::DWARFDie", align 8
  %3 = alloca ptr, align 8
  store ptr %0, ptr %3, align 8
  %4 = load ptr, ptr %3, align 8
  %5 = call noundef zeroext i1 @_ZNK4llvm8DWARFDie7isValidEv(ptr noundef nonnull align 8 dereferenceable(16) %4)
  br i1 %5, label %6, label %16

6:                                                ; preds = %1
  %7 = getelementptr inbounds nuw %"class.llvm::DWARFDie", ptr %4, i32 0, i32 0
  %8 = load ptr, ptr %7, align 8
  %9 = getelementptr inbounds nuw %"class.llvm::DWARFDie", ptr %4, i32 0, i32 1
  %10 = load ptr, ptr %9, align 8
  %11 = call { ptr, ptr } @_ZN4llvm9DWARFUnit18getPreviousSiblingEPKNS_19DWARFDebugInfoEntryE(ptr noundef nonnull align 8 dereferenceable(448) %8, ptr noundef %10)
  %12 = getelementptr inbounds nuw { ptr, ptr }, ptr %2, i32 0, i32 0
  %13 = extractvalue { ptr, ptr } %11, 0
  store ptr %13, ptr %12, align 8
  %14 = getelementptr inbounds nuw { ptr, ptr }, ptr %2, i32 0, i32 1
  %15 = extractvalue { ptr, ptr } %11, 1
  store ptr %15, ptr %14, align 8
  br label %17

16:                                               ; preds = %1
  call void @llvm.memset.p0.i64(ptr align 8 %2, i8 0, i64 16, i1 false)
  call void @_ZN4llvm8DWARFDieC2Ev(ptr noundef nonnull align 8 dereferenceable(16) %2) #13
  br label %17

17:                                               ; preds = %16, %6
  %18 = load { ptr, ptr }, ptr %2, align 8
  ret { ptr, ptr } %18
}